; Function Attrs: null_pointer_is_valid sspstrong uwtable
define void @proto_tree_free(ptr noundef %0) local_unnamed_addr #0 {
  %2 = getelementptr inbounds nuw i8, ptr %0, i64 48
  %3 = load ptr, ptr %2, align 8
  %.not.i = icmp eq ptr %0, null
  br i1 %.not.i, label %proto_tree_children_foreach.exit, label %4

4:                                                ; preds = %1
  %5 = load ptr, ptr %0, align 8
  %.not1011.i = icmp eq ptr %5, null
  br i1 %.not1011.i, label %proto_tree_children_foreach.exit, label %.lr.ph.i

.lr.ph.i:                                         ; preds = %4, %.lr.ph.i
  %.012.i = phi ptr [ %7, %.lr.ph.i ], [ %5, %4 ]
  %6 = getelementptr inbounds nuw i8, ptr %.012.i, i64 16
  %7 = load ptr, ptr %6, align 8
  tail call fastcc void @proto_tree_free_node(ptr noundef nonnull %.012.i)
  %.not10.i = icmp eq ptr %7, null
  br i1 %.not10.i, label %proto_tree_children_foreach.exit, label %.lr.ph.i, !llvm.loop !13

proto_tree_children_foreach.exit:                 ; preds = %.lr.ph.i, %1, %4
  %8 = load ptr, ptr %3, align 8
  %.not = icmp eq ptr %8, null
  br i1 %.not, label %11, label %9

9:                                                ; preds = %proto_tree_children_foreach.exit
  tail call void @g_hash_table_foreach(ptr noundef nonnull %8, ptr noundef nonnull @free_GPtrArray_value, ptr noundef null)
  %10 = load ptr, ptr %3, align 8
  tail call void @g_hash_table_destroy(ptr noundef %10)
  br label %11

11:                                               ; preds = %proto_tree_children_foreach.exit, %9
  tail call void @g_slice_free1(i64 noundef 32, ptr noundef %3)
  tail call void @g_slice_free1(i64 noundef 56, ptr noundef %0)
  ret void
}